; Function Attrs: mustprogress null_pointer_is_valid sspstrong uwtable
define void @_ZN25ServiceResponseTimeDialog11addSrtTableEPK15_srt_stat_table(ptr noundef align 8 dereferenceable_or_null(256) %0, ptr noundef %1) local_unnamed_addr #2 align 2 personality ptr @__gxx_personality_v0 {
  %3 = tail call noalias noundef dereferenceable_or_null(104) ptr @_Znwm(i64 noundef 104) #29
  %4 = invoke noundef ptr @_ZN18TapParameterDialog15statsTreeWidgetEv(ptr noundef align 8 dereferenceable_or_null(232) %0)
          to label %5 unwind label %7

5:                                                ; preds = %2
  invoke void @_ZN22SrtTableTreeWidgetItemC2EP11QTreeWidgetPK15_srt_stat_table(ptr noundef align 8 dereferenceable_or_null(104) %3, ptr noundef %4, ptr noundef %1)
          to label %6 unwind label %7

6:                                                ; preds = %5
  ret void

7:                                                ; preds = %5, %2
  %8 = landingpad { ptr, i32 }
          cleanup
  tail call void @_ZdlPvm(ptr noundef %3, i64 noundef 104) #27
  resume { ptr, i32 } %8
}